target datalayout = "e-m:e-p270:32:32-p271:32:32-p272:64:64-i64:64-i128:128-f80:128-n8:16:32:64-S128"
target triple = "x86_64-pc-linux-gnu"

%"struct.Luau::NotNull" = type { ptr }
%"struct.Luau::Location" = type { %"struct.Luau::Position", %"struct.Luau::Position" }
%"struct.Luau::Position" = type { i32, i32 }
%"class.Luau::AstNode" = type <{ ptr, i32, %"struct.Luau::Location", [4 x i8] }>

; Function Attrs: mustprogress uwtable
define dso_local void @_ZN4Luau14AnyTypeSummary8traverseEPKNS_6ModuleEPNS_7AstStatENS_7NotNullINS_12BuiltinTypesEEE(ptr noundef nonnull align 8 dereferenceable(288) %0, ptr noundef %1, ptr noundef %2, ptr %3) #8 align 2 {
  %5 = alloca %"struct.Luau::NotNull", align 8
  %6 = alloca ptr, align 8
  %7 = alloca ptr, align 8
  %8 = alloca ptr, align 8
  %9 = alloca %"struct.Luau::Location", align 4
  %10 = alloca %"struct.Luau::NotNull", align 8
  %11 = getelementptr inbounds nuw %"struct.Luau::NotNull", ptr %5, i32 0, i32 0
  store ptr %3, ptr %11, align 8
  store ptr %0, ptr %6, align 8, !tbaa !42
  store ptr %1, ptr %7, align 8, !tbaa !44
  store ptr %2, ptr %8, align 8, !tbaa !46
  %12 = load ptr, ptr %6, align 8
  %13 = load ptr, ptr %8, align 8, !tbaa !46
  %14 = getelementptr inbounds nuw %"class.Luau::AstNode", ptr %13, i32 0, i32 2
  call void @llvm.memcpy.p0.p0.i64(ptr align 4 %9, ptr align 4 %14, i64 16, i1 false), !tbaa.struct !48
  %15 = load ptr, ptr %7, align 8, !tbaa !44
  %16 = getelementptr inbounds nuw { i64, i64 }, ptr %9, i32 0, i32 0
  %17 = load i64, ptr %16, align 4
  %18 = getelementptr inbounds nuw { i64, i64 }, ptr %9, i32 0, i32 1
  %19 = load i64, ptr %18, align 4
  %20 = call noundef ptr @_ZN4Luau14AnyTypeSummary18findInnerMostScopeENS_8LocationEPKNS_6ModuleE(ptr noundef nonnull align 8 dereferenceable(288) %12, i64 %17, i64 %19, ptr noundef %15)
  %21 = load ptr, ptr %8, align 8, !tbaa !46
  %22 = load ptr, ptr %7, align 8, !tbaa !44
  call void @llvm.memcpy.p0.p0.i64(ptr align 8 %10, ptr align 8 %5, i64 8, i1 false), !tbaa.struct !49
  %23 = getelementptr inbounds nuw %"struct.Luau::NotNull", ptr %10, i32 0, i32 0
  %24 = load ptr, ptr %23, align 8
  call void @_ZN4Luau14AnyTypeSummary5visitEPKNS_5ScopeEPNS_7AstStatEPKNS_6ModuleENS_7NotNullINS_12BuiltinTypesEEE(ptr noundef nonnull align 8 dereferenceable(288) %12, ptr noundef %20, ptr noundef %21, ptr noundef %22, ptr %24)
  ret void
}