; Function Attrs: mustprogress uwtable
define dso_local void @_ZN4Luau14AnyTypeSummary8traverseEPKNS_6ModuleEPNS_7AstStatENS_7NotNullINS_12BuiltinTypesEEE(ptr noundef nonnull align 8 dereferenceable(288) %0, ptr noundef nonnull %1, ptr noundef %2, ptr %3) local_unnamed_addr #6 align 2 {
  %5 = getelementptr inbounds nuw i8, ptr %2, i64 12
  %.sroa.01.0.copyload = load i64, ptr %5, align 4
  %.sroa.2.0..sroa_idx = getelementptr inbounds nuw i8, ptr %2, i64 20
  %.sroa.2.0.copyload = load i64, ptr %.sroa.2.0..sroa_idx, align 4
  %6 = tail call noundef ptr @_ZN4Luau14AnyTypeSummary18findInnerMostScopeENS_8LocationEPKNS_6ModuleE(ptr nonnull align 8 poison, i64 %.sroa.01.0.copyload, i64 %.sroa.2.0.copyload, ptr noundef %1)
  tail call void @_ZN4Luau14AnyTypeSummary5visitEPKNS_5ScopeEPNS_7AstStatEPKNS_6ModuleENS_7NotNullINS_12BuiltinTypesEEE(ptr noundef nonnull align 8 dereferenceable(288) %0, ptr noundef %6, ptr noundef %2, ptr noundef nonnull %1, ptr %3)
  ret void
}